; Function Attrs: nounwind uwtable
define internal i32 @ftp_multi_statemach(ptr noundef %0, ptr noundef writeonly captures(none) initializes((0, 1)) %1) #0 {
  %3 = getelementptr inbounds nuw i8, ptr %0, i64 24
  %4 = load ptr, ptr %3, align 8, !tbaa !107
  %5 = getelementptr inbounds nuw i8, ptr %4, i64 1056
  %6 = tail call i32 @Curl_pp_statemach(ptr noundef %0, ptr noundef nonnull %5, i1 noundef zeroext false, i1 noundef zeroext false) #10
  %7 = getelementptr inbounds nuw i8, ptr %4, i64 1326
  %8 = load i8, ptr %7, align 2, !tbaa !138
  %9 = icmp eq i8 %8, 0
  %10 = zext i1 %9 to i8
  store i8 %10, ptr %1, align 1, !tbaa !108
  ret i32 %6
}